target datalayout = "e-m:e-p270:32:32-p271:32:32-p272:64:64-i64:64-i128:128-f80:128-n8:16:32:64-S128"
target triple = "x86_64-pc-linux-gnu"

%struct.mbedtls_error_pair_t = type { i16, i16 }
%struct.mbedtls_ssl_context = type { ptr, i32, i32, i32, i32, i32, ptr, ptr, ptr, ptr, ptr, ptr, ptr, ptr, ptr, ptr, ptr, ptr, ptr, ptr, ptr, ptr, ptr, ptr, ptr, ptr, ptr, ptr, ptr, ptr, ptr, ptr, ptr, i32, i64, i64, i16, i64, i64, i64, i64, i32, i32, i8, i8, i32, i8, ptr, ptr, ptr, ptr, ptr, ptr, ptr, i32, i64, i64, [8 x i8], i16, ptr, ptr, ptr, i64, i32, i64, [12 x i8], [12 x i8], [32 x i8], i8, i8, ptr, ptr, %union.mbedtls_ssl_user_data_t }
%union.mbedtls_ssl_user_data_t = type { i64 }
%struct.mbedtls_ssl_handshake_params = type { i8, i8, i8, i8, i8, i32, i8, i8, i8, i8, ptr, ptr, ptr, ptr, ptr, i8, i8, i8, i8, i16, i16, [20 x i16], ptr, ptr, %struct.mbedtls_dhm_context, %struct.mbedtls_ecdh_context, i16, i64, i32, i8, [1024 x i8], i64, ptr, ptr, i64, i16, ptr, ptr, ptr, ptr, %struct.anon, ptr, i16, i8, i32, i32, i32, ptr, ptr, ptr, i32, ptr, [8 x i8], i8, [32 x i8], i8, i16, %struct.mbedtls_md_context_t, %struct.mbedtls_md_context_t, i16, i8, %union.anon.1, [64 x i8], [1076 x i8], i64, i32, i32, i8, ptr, ptr, %union.anon.4, %struct.mbedtls_ssl_tls13_handshake_secrets, ptr, i64, ptr }
%struct.mbedtls_dhm_context = type { %struct.mbedtls_mpi, %struct.mbedtls_mpi, %struct.mbedtls_mpi, %struct.mbedtls_mpi, %struct.mbedtls_mpi, %struct.mbedtls_mpi, %struct.mbedtls_mpi, %struct.mbedtls_mpi, %struct.mbedtls_mpi, %struct.mbedtls_mpi }
%struct.mbedtls_mpi = type { ptr, i16, i16 }
%struct.mbedtls_ecdh_context = type { i8, i32, i32, %union.anon }
%union.anon = type { %struct.mbedtls_ecdh_context_mbed }
%struct.mbedtls_ecdh_context_mbed = type { %struct.mbedtls_ecp_group, %struct.mbedtls_mpi, %struct.mbedtls_ecp_point, %struct.mbedtls_ecp_point, %struct.mbedtls_mpi }
%struct.mbedtls_ecp_group = type { i32, %struct.mbedtls_mpi, %struct.mbedtls_mpi, %struct.mbedtls_mpi, %struct.mbedtls_ecp_point, %struct.mbedtls_mpi, i64, i64, i32, ptr, ptr, ptr, ptr, ptr, i64 }
%struct.mbedtls_ecp_point = type { %struct.mbedtls_mpi, %struct.mbedtls_mpi, %struct.mbedtls_mpi }
%struct.anon = type { i64, i8, [4 x %struct.mbedtls_ssl_hs_buffer], %struct.anon.0 }
%struct.mbedtls_ssl_hs_buffer = type { i8, ptr, i64 }
%struct.anon.0 = type { ptr, i64, i32 }
%struct.mbedtls_md_context_t = type { ptr, ptr, ptr }
%union.anon.1 = type { %struct.anon.2 }
%struct.anon.2 = type { i8, [64 x i8], i64 }
%union.anon.4 = type { [64 x i8] }
%struct.mbedtls_ssl_tls13_handshake_secrets = type { [64 x i8], [64 x i8] }
%struct.psa_key_attributes_s = type { i16, i16, i32, %struct.psa_key_policy_s, i32 }
%struct.psa_key_policy_s = type { i32, i32, i32 }

@.str = private unnamed_addr constant [131 x i8] c"generated/home/dtcxzyw/WorkSpace/Projects/compilers/llvm-opt-benchmark/bench/lief/bench_build/mbed_src/library/ssl_tls13_generic.c\00", align 1
@.str.31 = private unnamed_addr constant [41 x i8] c"Perform PSA-based ECDH/FFDH computation.\00", align 1
@.str.32 = private unnamed_addr constant [17 x i8] c"psa_generate_key\00", align 1
@.str.33 = private unnamed_addr constant [22 x i8] c"psa_export_public_key\00", align 1
@psa_to_ssl_errors = external constant [7 x %struct.mbedtls_error_pair_t], align 16

; Function Attrs: inlinehint nounwind uwtable
define internal void @psa_extend_key_usage_flags(ptr noundef %0) #3 {
  %2 = alloca ptr, align 8
  store ptr %0, ptr %2, align 8, !tbaa !125
  %3 = load ptr, ptr %2, align 8, !tbaa !125
  %4 = load i32, ptr %3, align 4, !tbaa !8
  %5 = and i32 %4, 4096
  %6 = icmp ne i32 %5, 0
  br i1 %6, label %7, label %11

7:                                                ; preds = %1
  %8 = load ptr, ptr %2, align 8, !tbaa !125
  %9 = load i32, ptr %8, align 4, !tbaa !8
  %10 = or i32 %9, 1024
  store i32 %10, ptr %8, align 4, !tbaa !8
  br label %11

11:                                               ; preds = %7, %1
  %12 = load ptr, ptr %2, align 8, !tbaa !125
  %13 = load i32, ptr %12, align 4, !tbaa !8
  %14 = and i32 %13, 8192
  %15 = icmp ne i32 %14, 0
  br i1 %15, label %16, label %20

16:                                               ; preds = %11
  %17 = load ptr, ptr %2, align 8, !tbaa !125
  %18 = load i32, ptr %17, align 4, !tbaa !8
  %19 = or i32 %18, 2048
  store i32 %19, ptr %17, align 4, !tbaa !8
  br label %20

20:                                               ; preds = %16, %11
  ret void
}

; Function Attrs: nounwind uwtable
define internal i32 @local_err_translation(i32 noundef %0) #0 {
  %2 = alloca i32, align 4
  store i32 %0, ptr %2, align 4, !tbaa !8
  %3 = load i32, ptr %2, align 4, !tbaa !8
  %4 = call i32 @psa_status_to_mbedtls(i32 noundef %3, ptr noundef @psa_to_ssl_errors, i64 noundef 7, ptr noundef @psa_generic_status_to_mbedtls)
  ret i32 %4
}

; Function Attrs: inlinehint nounwind uwtable
define internal void @psa_set_key_bits(ptr noundef %0, i64 noundef %1) #3 {
  %3 = alloca ptr, align 8
  %4 = alloca i64, align 8
  store ptr %0, ptr %3, align 8, !tbaa !107
  store i64 %1, ptr %4, align 8, !tbaa !28
  %5 = load i64, ptr %4, align 8, !tbaa !28
  %6 = icmp ugt i64 %5, 65528
  br i1 %6, label %7, label %10

7:                                                ; preds = %2
  %8 = load ptr, ptr %3, align 8, !tbaa !107
  %9 = getelementptr inbounds nuw %struct.psa_key_attributes_s, ptr %8, i32 0, i32 1
  store i16 -1, ptr %9, align 2, !tbaa !114
  br label %15

10:                                               ; preds = %2
  %11 = load i64, ptr %4, align 8, !tbaa !28
  %12 = trunc i64 %11 to i16
  %13 = load ptr, ptr %3, align 8, !tbaa !107
  %14 = getelementptr inbounds nuw %struct.psa_key_attributes_s, ptr %13, i32 0, i32 1
  store i16 %12, ptr %14, align 2, !tbaa !114
  br label %15

15:                                               ; preds = %10, %7
  ret void
}

; Function Attrs: inlinehint nounwind uwtable
define internal void @psa_set_key_type(ptr noundef %0, i16 noundef zeroext %1) #3 {
  %3 = alloca ptr, align 8
  %4 = alloca i16, align 2
  store ptr %0, ptr %3, align 8, !tbaa !107
  store i16 %1, ptr %4, align 2, !tbaa !32
  %5 = load i16, ptr %4, align 2, !tbaa !32
  %6 = load ptr, ptr %3, align 8, !tbaa !107
  %7 = getelementptr inbounds nuw %struct.psa_key_attributes_s, ptr %6, i32 0, i32 0
  store i16 %5, ptr %7, align 4, !tbaa !113
  ret void
}

; Function Attrs: inlinehint nounwind uwtable
define internal void @psa_set_key_algorithm(ptr noundef %0, i32 noundef %1) #3 {
  %3 = alloca ptr, align 8
  %4 = alloca i32, align 4
  store ptr %0, ptr %3, align 8, !tbaa !107
  store i32 %1, ptr %4, align 4, !tbaa !8
  %5 = load i32, ptr %4, align 4, !tbaa !8
  %6 = load ptr, ptr %3, align 8, !tbaa !107
  %7 = getelementptr inbounds nuw %struct.psa_key_attributes_s, ptr %6, i32 0, i32 3
  %8 = getelementptr inbounds nuw %struct.psa_key_policy_s, ptr %7, i32 0, i32 1
  store i32 %5, ptr %8, align 4, !tbaa !112
  ret void
}

; Function Attrs: inlinehint nounwind uwtable
define internal void @psa_set_key_usage_flags(ptr noundef %0, i32 noundef %1) #3 {
  %3 = alloca ptr, align 8
  %4 = alloca i32, align 4
  store ptr %0, ptr %3, align 8, !tbaa !107
  store i32 %1, ptr %4, align 4, !tbaa !8
  call void @psa_extend_key_usage_flags(ptr noundef %4)
  %5 = load i32, ptr %4, align 4, !tbaa !8
  %6 = load ptr, ptr %3, align 8, !tbaa !107
  %7 = getelementptr inbounds nuw %struct.psa_key_attributes_s, ptr %6, i32 0, i32 3
  %8 = getelementptr inbounds nuw %struct.psa_key_policy_s, ptr %7, i32 0, i32 0
  store i32 %5, ptr %8, align 4, !tbaa !109
  ret void
}

; Function Attrs: inlinehint nounwind uwtable
define internal void @psa_key_attributes_init(ptr dead_on_unwind noalias writable sret(%struct.psa_key_attributes_s) align 4 %0) #3 {
  call void @llvm.memset.p0.i64(ptr align 4 %0, i8 0, i64 24, i1 false)
  ret void
}

; Function Attrs: nounwind uwtable
define internal i32 @mbedtls_ssl_get_psa_ffdh_info_from_tls_id(i16 noundef zeroext %0, ptr noundef %1, ptr noundef %2) #0 {
  %4 = alloca i32, align 4
  %5 = alloca i16, align 2
  %6 = alloca ptr, align 8
  %7 = alloca ptr, align 8
  store i16 %0, ptr %5, align 2, !tbaa !32
  store ptr %1, ptr %6, align 8, !tbaa !13
  store ptr %2, ptr %7, align 8, !tbaa !91
  %8 = load i16, ptr %5, align 2, !tbaa !32
  %9 = zext i16 %8 to i32
  switch i32 %9, label %25 [
    i32 256, label %10
    i32 257, label %13
    i32 258, label %16
    i32 259, label %19
    i32 260, label %22
  ]

10:                                               ; preds = %3
  %11 = load ptr, ptr %6, align 8, !tbaa !13
  store i64 2048, ptr %11, align 8, !tbaa !28
  %12 = load ptr, ptr %7, align 8, !tbaa !91
  store i16 29187, ptr %12, align 2, !tbaa !32
  store i32 0, ptr %4, align 4
  br label %26

13:                                               ; preds = %3
  %14 = load ptr, ptr %6, align 8, !tbaa !13
  store i64 3072, ptr %14, align 8, !tbaa !28
  %15 = load ptr, ptr %7, align 8, !tbaa !91
  store i16 29187, ptr %15, align 2, !tbaa !32
  store i32 0, ptr %4, align 4
  br label %26

16:                                               ; preds = %3
  %17 = load ptr, ptr %6, align 8, !tbaa !13
  store i64 4096, ptr %17, align 8, !tbaa !28
  %18 = load ptr, ptr %7, align 8, !tbaa !91
  store i16 29187, ptr %18, align 2, !tbaa !32
  store i32 0, ptr %4, align 4
  br label %26

19:                                               ; preds = %3
  %20 = load ptr, ptr %6, align 8, !tbaa !13
  store i64 6144, ptr %20, align 8, !tbaa !28
  %21 = load ptr, ptr %7, align 8, !tbaa !91
  store i16 29187, ptr %21, align 2, !tbaa !32
  store i32 0, ptr %4, align 4
  br label %26

22:                                               ; preds = %3
  %23 = load ptr, ptr %6, align 8, !tbaa !13
  store i64 8192, ptr %23, align 8, !tbaa !28
  %24 = load ptr, ptr %7, align 8, !tbaa !91
  store i16 29187, ptr %24, align 2, !tbaa !32
  store i32 0, ptr %4, align 4
  br label %26

25:                                               ; preds = %3
  store i32 -134, ptr %4, align 4
  br label %26

26:                                               ; preds = %25, %22, %19, %16, %13, %10
  %27 = load i32, ptr %4, align 4
  ret i32 %27
}

; Function Attrs: nounwind uwtable
define hidden i32 @mbedtls_ssl_tls13_generate_and_write_xxdh_key_exchange(ptr noundef %0, i16 noundef zeroext %1, ptr noundef %2, ptr noundef %3, ptr noundef %4) #0 {
  %6 = alloca i32, align 4
  %7 = alloca ptr, align 8
  %8 = alloca i16, align 2
  %9 = alloca ptr, align 8
  %10 = alloca ptr, align 8
  %11 = alloca ptr, align 8
  %12 = alloca i32, align 4
  %13 = alloca i32, align 4
  %14 = alloca %struct.psa_key_attributes_s, align 4
  %15 = alloca i64, align 8
  %16 = alloca ptr, align 8
  %17 = alloca i64, align 8
  %18 = alloca i16, align 2
  %19 = alloca i32, align 4
  %20 = alloca i64, align 8
  %21 = alloca i32, align 4
  %22 = alloca %struct.psa_key_attributes_s, align 4
  store ptr %0, ptr %7, align 8, !tbaa !3
  store i16 %1, ptr %8, align 2, !tbaa !32
  store ptr %2, ptr %9, align 8, !tbaa !26
  store ptr %3, ptr %10, align 8, !tbaa !26
  store ptr %4, ptr %11, align 8, !tbaa !13
  call void @llvm.lifetime.start.p0(i64 4, ptr %12) #10
  store i32 -132, ptr %12, align 4, !tbaa !8
  call void @llvm.lifetime.start.p0(i64 4, ptr %13) #10
  store i32 -28800, ptr %13, align 4, !tbaa !8
  call void @llvm.lifetime.start.p0(i64 24, ptr %14) #10
  call void @llvm.lifetime.start.p0(i64 8, ptr %15) #10
  call void @llvm.lifetime.start.p0(i64 8, ptr %16) #10
  %23 = load ptr, ptr %7, align 8, !tbaa !3
  %24 = getelementptr inbounds nuw %struct.mbedtls_ssl_context, ptr %23, i32 0, i32 16
  %25 = load ptr, ptr %24, align 8, !tbaa !33
  store ptr %25, ptr %16, align 8, !tbaa !64
  call void @llvm.lifetime.start.p0(i64 8, ptr %17) #10
  store i64 0, ptr %17, align 8, !tbaa !28
  call void @llvm.lifetime.start.p0(i64 2, ptr %18) #10
  store i16 0, ptr %18, align 2, !tbaa !32
  call void @llvm.lifetime.start.p0(i64 4, ptr %19) #10
  store i32 0, ptr %19, align 4, !tbaa !8
  call void @llvm.lifetime.start.p0(i64 8, ptr %20) #10
  %26 = load ptr, ptr %10, align 8, !tbaa !26
  %27 = load ptr, ptr %9, align 8, !tbaa !26
  %28 = ptrtoint ptr %26 to i64
  %29 = ptrtoint ptr %27 to i64
  %30 = sub i64 %28, %29
  store i64 %30, ptr %20, align 8, !tbaa !28
  %31 = load ptr, ptr %7, align 8, !tbaa !3
  call void (ptr, i32, ptr, i32, ptr, ...) @mbedtls_debug_print_msg(ptr noundef %31, i32 noundef 1, ptr noundef @.str, i32 noundef 1552, ptr noundef @.str.31)
  %32 = load i16, ptr %8, align 2, !tbaa !32
  %33 = call i32 @mbedtls_ssl_get_psa_curve_info_from_tls_id(i16 noundef zeroext %32, ptr noundef %18, ptr noundef %17)
  %34 = icmp eq i32 %33, 0
  br i1 %34, label %35, label %36

35:                                               ; preds = %5
  store i32 151126016, ptr %19, align 4, !tbaa !8
  br label %36

36:                                               ; preds = %35, %5
  %37 = load i16, ptr %8, align 2, !tbaa !32
  %38 = call i32 @mbedtls_ssl_get_psa_ffdh_info_from_tls_id(i16 noundef zeroext %37, ptr noundef %17, ptr noundef %18)
  %39 = icmp eq i32 %38, 0
  br i1 %39, label %40, label %41

40:                                               ; preds = %36
  store i32 151060480, ptr %19, align 4, !tbaa !8
  br label %41

41:                                               ; preds = %40, %36
  %42 = load i16, ptr %18, align 2, !tbaa !32
  %43 = zext i16 %42 to i32
  %44 = icmp eq i32 %43, 0
  br i1 %44, label %45, label %46

45:                                               ; preds = %41
  store i32 -28160, ptr %6, align 4
  store i32 1, ptr %21, align 4
  br label %98

46:                                               ; preds = %41
  %47 = load i64, ptr %20, align 8, !tbaa !28
  %48 = load i64, ptr %17, align 8, !tbaa !28
  %49 = add i64 %48, 7
  %50 = udiv i64 %49, 8
  %51 = icmp ult i64 %47, %50
  br i1 %51, label %52, label %53

52:                                               ; preds = %46
  store i32 -27136, ptr %6, align 4
  store i32 1, ptr %21, align 4
  br label %98

53:                                               ; preds = %46
  %54 = load i16, ptr %18, align 2, !tbaa !32
  %55 = load ptr, ptr %16, align 8, !tbaa !64
  %56 = getelementptr inbounds nuw %struct.mbedtls_ssl_handshake_params, ptr %55, i32 0, i32 26
  store i16 %54, ptr %56, align 8, !tbaa !103
  %57 = load i64, ptr %17, align 8, !tbaa !28
  %58 = load ptr, ptr %7, align 8, !tbaa !3
  %59 = getelementptr inbounds nuw %struct.mbedtls_ssl_context, ptr %58, i32 0, i32 16
  %60 = load ptr, ptr %59, align 8, !tbaa !33
  %61 = getelementptr inbounds nuw %struct.mbedtls_ssl_handshake_params, ptr %60, i32 0, i32 27
  store i64 %57, ptr %61, align 8, !tbaa !104
  call void @llvm.lifetime.start.p0(i64 24, ptr %22) #10
  call void @psa_key_attributes_init(ptr dead_on_unwind writable sret(%struct.psa_key_attributes_s) align 4 %22)
  call void @llvm.memcpy.p0.p0.i64(ptr align 4 %14, ptr align 4 %22, i64 24, i1 false), !tbaa.struct !105
  call void @llvm.lifetime.end.p0(i64 24, ptr %22) #10
  call void @psa_set_key_usage_flags(ptr noundef %14, i32 noundef 16384)
  %62 = load i32, ptr %19, align 4, !tbaa !8
  call void @psa_set_key_algorithm(ptr noundef %14, i32 noundef %62)
  %63 = load ptr, ptr %16, align 8, !tbaa !64
  %64 = getelementptr inbounds nuw %struct.mbedtls_ssl_handshake_params, ptr %63, i32 0, i32 26
  %65 = load i16, ptr %64, align 8, !tbaa !103
  call void @psa_set_key_type(ptr noundef %14, i16 noundef zeroext %65)
  %66 = load ptr, ptr %16, align 8, !tbaa !64
  %67 = getelementptr inbounds nuw %struct.mbedtls_ssl_handshake_params, ptr %66, i32 0, i32 27
  %68 = load i64, ptr %67, align 8, !tbaa !104
  call void @psa_set_key_bits(ptr noundef %14, i64 noundef %68)
  %69 = load ptr, ptr %16, align 8, !tbaa !64
  %70 = getelementptr inbounds nuw %struct.mbedtls_ssl_handshake_params, ptr %69, i32 0, i32 28
  %71 = call i32 @psa_generate_key(ptr noundef %14, ptr noundef %70)
  store i32 %71, ptr %12, align 4, !tbaa !8
  %72 = load i32, ptr %12, align 4, !tbaa !8
  %73 = icmp ne i32 %72, 0
  br i1 %73, label %74, label %80

74:                                               ; preds = %53
  %75 = load i32, ptr %12, align 4, !tbaa !8
  %76 = call i32 @local_err_translation(i32 noundef %75)
  store i32 %76, ptr %13, align 4, !tbaa !8
  %77 = load ptr, ptr %7, align 8, !tbaa !3
  %78 = load i32, ptr %13, align 4, !tbaa !8
  call void @mbedtls_debug_print_ret(ptr noundef %77, i32 noundef 1, ptr noundef @.str, i32 noundef 1590, ptr noundef @.str.32, i32 noundef %78)
  %79 = load i32, ptr %13, align 4, !tbaa !8
  store i32 %79, ptr %6, align 4
  store i32 1, ptr %21, align 4
  br label %98

80:                                               ; preds = %53
  %81 = load ptr, ptr %16, align 8, !tbaa !64
  %82 = getelementptr inbounds nuw %struct.mbedtls_ssl_handshake_params, ptr %81, i32 0, i32 28
  %83 = load i32, ptr %82, align 8, !tbaa !106
  %84 = load ptr, ptr %9, align 8, !tbaa !26
  %85 = load i64, ptr %20, align 8, !tbaa !28
  %86 = call i32 @psa_export_public_key(i32 noundef %83, ptr noundef %84, i64 noundef %85, ptr noundef %15)
  store i32 %86, ptr %12, align 4, !tbaa !8
  %87 = load i32, ptr %12, align 4, !tbaa !8
  %88 = icmp ne i32 %87, 0
  br i1 %88, label %89, label %95

89:                                               ; preds = %80
  %90 = load i32, ptr %12, align 4, !tbaa !8
  %91 = call i32 @local_err_translation(i32 noundef %90)
  store i32 %91, ptr %13, align 4, !tbaa !8
  %92 = load ptr, ptr %7, align 8, !tbaa !3
  %93 = load i32, ptr %13, align 4, !tbaa !8
  call void @mbedtls_debug_print_ret(ptr noundef %92, i32 noundef 1, ptr noundef @.str, i32 noundef 1602, ptr noundef @.str.33, i32 noundef %93)
  %94 = load i32, ptr %13, align 4, !tbaa !8
  store i32 %94, ptr %6, align 4
  store i32 1, ptr %21, align 4
  br label %98

95:                                               ; preds = %80
  %96 = load i64, ptr %15, align 8, !tbaa !28
  %97 = load ptr, ptr %11, align 8, !tbaa !13
  store i64 %96, ptr %97, align 8, !tbaa !28
  store i32 0, ptr %6, align 4
  store i32 1, ptr %21, align 4
  br label %98

98:                                               ; preds = %95, %89, %74, %52, %45
  call void @llvm.lifetime.end.p0(i64 8, ptr %20) #10
  call void @llvm.lifetime.end.p0(i64 4, ptr %19) #10
  call void @llvm.lifetime.end.p0(i64 2, ptr %18) #10
  call void @llvm.lifetime.end.p0(i64 8, ptr %17) #10
  call void @llvm.lifetime.end.p0(i64 8, ptr %16) #10
  call void @llvm.lifetime.end.p0(i64 8, ptr %15) #10
  call void @llvm.lifetime.end.p0(i64 24, ptr %14) #10
  call void @llvm.lifetime.end.p0(i64 4, ptr %13) #10
  call void @llvm.lifetime.end.p0(i64 4, ptr %12) #10
  %99 = load i32, ptr %6, align 4
  ret i32 %99
}