; Function Attrs: nounwind uwtable
define hidden noundef i32 @mbedtls_ssl_tls13_generate_and_write_xxdh_key_exchange(ptr noundef %0, i16 noundef zeroext %1, ptr noundef %2, ptr noundef %3, ptr noundef writeonly captures(none) %4) local_unnamed_addr #0 {
  %6 = alloca %struct.psa_key_attributes_s, align 4
  %7 = alloca i64, align 8
  %8 = alloca i64, align 8
  %9 = alloca i16, align 2
  call void @llvm.lifetime.start.p0(i64 24, ptr nonnull %6) #8
  call void @llvm.lifetime.start.p0(i64 8, ptr nonnull %7) #8
  %10 = getelementptr inbounds nuw i8, ptr %0, i64 112
  %11 = load ptr, ptr %10, align 8, !tbaa !23
  call void @llvm.lifetime.start.p0(i64 8, ptr nonnull %8) #8
  store i64 0, ptr %8, align 8, !tbaa !20
  call void @llvm.lifetime.start.p0(i64 2, ptr nonnull %9) #8
  store i16 0, ptr %9, align 2, !tbaa !53
  %12 = ptrtoint ptr %3 to i64
  %13 = ptrtoint ptr %2 to i64
  %14 = sub i64 %12, %13
  tail call void (ptr, i32, ptr, i32, ptr, ...) @mbedtls_debug_print_msg(ptr noundef %0, i32 noundef 1, ptr noundef nonnull @.str, i32 noundef 1552, ptr noundef nonnull @.str.31) #8
  %15 = call i32 @mbedtls_ssl_get_psa_curve_info_from_tls_id(i16 noundef zeroext %1, ptr noundef nonnull %9, ptr noundef nonnull %8) #8
  %switch.tableidx = add i16 %1, -256
  %16 = icmp ult i16 %switch.tableidx, 5
  br i1 %16, label %switch.lookup, label %mbedtls_ssl_get_psa_ffdh_info_from_tls_id.exit

switch.lookup:                                    ; preds = %5
  %17 = zext nneg i16 %switch.tableidx to i64
  %switch.gep = getelementptr inbounds nuw [5 x i64], ptr @switch.table.mbedtls_ssl_tls13_generate_and_write_xxdh_key_exchange, i64 0, i64 %17
  %switch.load = load i64, ptr %switch.gep, align 8
  store i64 %switch.load, ptr %8, align 8, !tbaa !20
  store i16 29187, ptr %9, align 2, !tbaa !53
  br label %20

mbedtls_ssl_get_psa_ffdh_info_from_tls_id.exit:   ; preds = %5
  %.pr = load i16, ptr %9, align 2, !tbaa !53
  %18 = icmp eq i16 %.pr, 0
  br i1 %18, label %50, label %mbedtls_ssl_get_psa_ffdh_info_from_tls_id.exit._crit_edge

mbedtls_ssl_get_psa_ffdh_info_from_tls_id.exit._crit_edge: ; preds = %mbedtls_ssl_get_psa_ffdh_info_from_tls_id.exit
  %19 = icmp eq i32 %15, 0
  %spec.select = select i1 %19, i32 151126016, i32 0
  %.pre = load i64, ptr %8, align 8, !tbaa !20
  br label %20

20:                                               ; preds = %mbedtls_ssl_get_psa_ffdh_info_from_tls_id.exit._crit_edge, %switch.lookup
  %21 = phi i64 [ %switch.load, %switch.lookup ], [ %.pre, %mbedtls_ssl_get_psa_ffdh_info_from_tls_id.exit._crit_edge ]
  %22 = phi i32 [ 151060480, %switch.lookup ], [ %spec.select, %mbedtls_ssl_get_psa_ffdh_info_from_tls_id.exit._crit_edge ]
  %23 = phi i16 [ 29187, %switch.lookup ], [ %.pr, %mbedtls_ssl_get_psa_ffdh_info_from_tls_id.exit._crit_edge ]
  %24 = add i64 %21, 7
  %25 = lshr i64 %24, 3
  %26 = icmp ult i64 %14, %25
  br i1 %26, label %50, label %27

27:                                               ; preds = %20
  %28 = getelementptr inbounds nuw i8, ptr %11, i64 616
  store i16 %23, ptr %28, align 8, !tbaa !101
  %29 = load ptr, ptr %10, align 8, !tbaa !23
  %30 = getelementptr inbounds nuw i8, ptr %29, i64 624
  store i64 %21, ptr %30, align 8, !tbaa !102
  %31 = getelementptr inbounds nuw i8, ptr %6, i64 4
  call void @llvm.memset.p0.i64(ptr noundef nonnull align 4 dereferenceable(20) %31, i8 0, i64 20, i1 false)
  %32 = getelementptr inbounds nuw i8, ptr %6, i64 8
  store i32 16384, ptr %32, align 4, !tbaa !103
  %33 = getelementptr inbounds nuw i8, ptr %6, i64 12
  store i32 %22, ptr %33, align 4, !tbaa !106
  store i16 %23, ptr %6, align 4, !tbaa !107
  %34 = getelementptr inbounds nuw i8, ptr %11, i64 624
  %35 = load i64, ptr %34, align 8, !tbaa !102
  %36 = icmp ugt i64 %35, 65528
  %37 = trunc nuw i64 %35 to i16
  %spec.select.i = select i1 %36, i16 -1, i16 %37
  %38 = getelementptr inbounds nuw i8, ptr %6, i64 2
  store i16 %spec.select.i, ptr %38, align 2, !tbaa !108
  %39 = getelementptr inbounds nuw i8, ptr %11, i64 632
  %40 = call i32 @psa_generate_key(ptr noundef nonnull %6, ptr noundef nonnull %39) #8
  %.not = icmp eq i32 %40, 0
  br i1 %.not, label %43, label %41

41:                                               ; preds = %27
  %42 = call i32 @psa_status_to_mbedtls(i32 noundef %40, ptr noundef nonnull @psa_to_ssl_errors, i64 noundef 7, ptr noundef nonnull @psa_generic_status_to_mbedtls) #8
  call void @mbedtls_debug_print_ret(ptr noundef nonnull %0, i32 noundef 1, ptr noundef nonnull @.str, i32 noundef 1590, ptr noundef nonnull @.str.32, i32 noundef %42) #8
  br label %50

43:                                               ; preds = %27
  %44 = load i32, ptr %39, align 8, !tbaa !109
  %45 = call i32 @psa_export_public_key(i32 noundef %44, ptr noundef %2, i64 noundef %14, ptr noundef nonnull %7) #8
  %.not31 = icmp eq i32 %45, 0
  br i1 %.not31, label %48, label %46

46:                                               ; preds = %43
  %47 = call i32 @psa_status_to_mbedtls(i32 noundef %45, ptr noundef nonnull @psa_to_ssl_errors, i64 noundef 7, ptr noundef nonnull @psa_generic_status_to_mbedtls) #8
  call void @mbedtls_debug_print_ret(ptr noundef nonnull %0, i32 noundef 1, ptr noundef nonnull @.str, i32 noundef 1602, ptr noundef nonnull @.str.33, i32 noundef %47) #8
  br label %50

48:                                               ; preds = %43
  %49 = load i64, ptr %7, align 8, !tbaa !20
  store i64 %49, ptr %4, align 8, !tbaa !20
  br label %50

50:                                               ; preds = %20, %mbedtls_ssl_get_psa_ffdh_info_from_tls_id.exit, %48, %46, %41
  %.0 = phi i32 [ %42, %41 ], [ %47, %46 ], [ 0, %48 ], [ -28160, %mbedtls_ssl_get_psa_ffdh_info_from_tls_id.exit ], [ -27136, %20 ]
  call void @llvm.lifetime.end.p0(i64 2, ptr nonnull %9) #8
  call void @llvm.lifetime.end.p0(i64 8, ptr nonnull %8) #8
  call void @llvm.lifetime.end.p0(i64 8, ptr nonnull %7) #8
  call void @llvm.lifetime.end.p0(i64 24, ptr nonnull %6) #8
  ret i32 %.0
}